target datalayout = "e-m:e-p270:32:32-p271:32:32-p272:64:64-i64:64-i128:128-f80:128-n8:16:32:64-S128"
target triple = "x86_64-pc-linux-gnu"

%struct.pmix_mca_base_framework_t = type { ptr, ptr, ptr, ptr, ptr, ptr, i32, i32, ptr, ptr, i32, i32, %struct.pmix_list_t, %struct.pmix_list_t }
%struct.pmix_list_t = type { %struct.pmix_object_t, %struct.pmix_list_item_t, i64 }
%struct.pmix_object_t = type { %union.pthread_mutex_t, ptr, i32, %struct.pmix_tma }
%union.pthread_mutex_t = type { %struct.__pthread_mutex_s }
%struct.__pthread_mutex_s = type { i32, i32, i32, i32, i32, i16, i16, %struct.__pthread_internal_list }
%struct.__pthread_internal_list = type { ptr, ptr }
%struct.pmix_tma = type { ptr, ptr, ptr, ptr, ptr, ptr, ptr, ptr }
%struct.pmix_list_item_t = type { %struct.pmix_object_t, ptr, ptr, i32 }
%struct.pmix_output_desc_t = type { i8, i8, i32, i8, i32, ptr, ptr, i32, ptr, i32, i8, i8, i8, i8, ptr, i32, i32 }
%struct.pmix_pgpu_globals_t = type { %struct.pmix_list_t, %struct.pmix_list_t, i8 }
%struct.pmix_pgpu_base_active_module_t = type { %struct.pmix_list_item_t, i32, ptr, ptr }
%struct.pmix_pgpu_module_t = type { ptr, ptr, ptr, ptr, ptr, ptr, ptr, ptr, ptr, ptr, ptr }

@pmix_pgpu_base_framework = external global %struct.pmix_mca_base_framework_t, align 8
@pmix_output_info = external global [0 x %struct.pmix_output_desc_t], align 8
@pmix_pgpu_globals = external global %struct.pmix_pgpu_globals_t, align 8
@.str.3 = private unnamed_addr constant [29 x i8] c"pgpu: child_finalized called\00", align 1
@.str.4 = private unnamed_addr constant [37 x i8] c"PMIX ERROR: %s in file %s at line %d\00", align 1
@.str.5 = private unnamed_addr constant [21 x i8] c"base/pgpu_base_fns.c\00", align 1

; Function Attrs: inlinehint nounwind uwtable
define internal i64 @pmix_list_get_size(ptr noundef %0) #3 {
  %2 = alloca ptr, align 8
  store ptr %0, ptr %2, align 8, !tbaa !12
  %3 = load ptr, ptr %2, align 8, !tbaa !12
  %4 = getelementptr inbounds nuw %struct.pmix_list_t, ptr %3, i32 0, i32 2
  %5 = load volatile i64, ptr %4, align 8, !tbaa !74
  ret i64 %5
}

; Function Attrs: nounwind uwtable
define void @pmix_pgpu_base_child_finalized(ptr noundef %0) #0 {
  %2 = alloca ptr, align 8
  %3 = alloca ptr, align 8
  %4 = alloca i32, align 4
  store ptr %0, ptr %2, align 8, !tbaa !102
  call void @llvm.lifetime.start.p0(i64 8, ptr %3) #11
  %5 = load i32, ptr getelementptr inbounds nuw (%struct.pmix_mca_base_framework_t, ptr @pmix_pgpu_base_framework, i32 0, i32 11), align 4, !tbaa !14
  %6 = icmp sge i32 %5, 0
  br i1 %6, label %7, label %19

7:                                                ; preds = %1
  %8 = load i32, ptr getelementptr inbounds nuw (%struct.pmix_mca_base_framework_t, ptr @pmix_pgpu_base_framework, i32 0, i32 11), align 4, !tbaa !14
  %9 = icmp slt i32 %8, 64
  br i1 %9, label %10, label %19

10:                                               ; preds = %7
  %11 = load i32, ptr getelementptr inbounds nuw (%struct.pmix_mca_base_framework_t, ptr @pmix_pgpu_base_framework, i32 0, i32 11), align 4, !tbaa !14
  %12 = sext i32 %11 to i64
  %13 = getelementptr inbounds [0 x %struct.pmix_output_desc_t], ptr @pmix_output_info, i64 0, i64 %12
  %14 = getelementptr inbounds nuw %struct.pmix_output_desc_t, ptr %13, i32 0, i32 2
  %15 = load i32, ptr %14, align 4, !tbaa !24
  %16 = icmp sge i32 %15, 2
  br i1 %16, label %17, label %19

17:                                               ; preds = %10
  %18 = load i32, ptr getelementptr inbounds nuw (%struct.pmix_mca_base_framework_t, ptr @pmix_pgpu_base_framework, i32 0, i32 11), align 4, !tbaa !14
  call void (i32, ptr, ...) @pmix_output(i32 noundef %18, ptr noundef @.str.3)
  br label %19

19:                                               ; preds = %17, %10, %7, %1
  %20 = load ptr, ptr %2, align 8, !tbaa !102
  %21 = icmp eq ptr null, %20
  br i1 %21, label %22, label %27

22:                                               ; preds = %19
  br label %23

23:                                               ; preds = %22
  %24 = call ptr @PMIx_Error_string(i32 noundef -27)
  call void (i32, ptr, ...) @pmix_output(i32 noundef 0, ptr noundef @.str.4, ptr noundef %24, ptr noundef @.str.5, i32 noundef 192)
  br label %25

25:                                               ; preds = %23
  br label %26

26:                                               ; preds = %25
  store i32 1, ptr %4, align 4
  br label %56

27:                                               ; preds = %19
  %28 = call i64 @pmix_list_get_size(ptr noundef @pmix_pgpu_globals)
  %29 = icmp eq i64 0, %28
  br i1 %29, label %30, label %31

30:                                               ; preds = %27
  store i32 1, ptr %4, align 4
  br label %56

31:                                               ; preds = %27
  %32 = load ptr, ptr getelementptr inbounds nuw (%struct.pmix_list_item_t, ptr getelementptr inbounds nuw (%struct.pmix_list_t, ptr @pmix_pgpu_globals, i32 0, i32 1), i32 0, i32 1), align 8, !tbaa !63
  store ptr %32, ptr %3, align 8, !tbaa !65
  br label %33

33:                                               ; preds = %51, %31
  %34 = load ptr, ptr %3, align 8, !tbaa !65
  %35 = icmp ne ptr %34, getelementptr inbounds nuw (%struct.pmix_list_t, ptr @pmix_pgpu_globals, i32 0, i32 1)
  br i1 %35, label %36, label %55

36:                                               ; preds = %33
  %37 = load ptr, ptr %3, align 8, !tbaa !65
  %38 = getelementptr inbounds nuw %struct.pmix_pgpu_base_active_module_t, ptr %37, i32 0, i32 2
  %39 = load ptr, ptr %38, align 8, !tbaa !67
  %40 = getelementptr inbounds nuw %struct.pmix_pgpu_module_t, ptr %39, i32 0, i32 6
  %41 = load ptr, ptr %40, align 8, !tbaa !113
  %42 = icmp ne ptr null, %41
  br i1 %42, label %43, label %50

43:                                               ; preds = %36
  %44 = load ptr, ptr %3, align 8, !tbaa !65
  %45 = getelementptr inbounds nuw %struct.pmix_pgpu_base_active_module_t, ptr %44, i32 0, i32 2
  %46 = load ptr, ptr %45, align 8, !tbaa !67
  %47 = getelementptr inbounds nuw %struct.pmix_pgpu_module_t, ptr %46, i32 0, i32 6
  %48 = load ptr, ptr %47, align 8, !tbaa !113
  %49 = load ptr, ptr %2, align 8, !tbaa !102
  call void %48(ptr noundef %49)
  br label %50

50:                                               ; preds = %43, %36
  br label %51

51:                                               ; preds = %50
  %52 = load ptr, ptr %3, align 8, !tbaa !65
  %53 = getelementptr inbounds nuw %struct.pmix_list_item_t, ptr %52, i32 0, i32 1
  %54 = load ptr, ptr %53, align 8, !tbaa !50
  store ptr %54, ptr %3, align 8, !tbaa !65
  br label %33, !llvm.loop !114

55:                                               ; preds = %33
  store i32 1, ptr %4, align 4
  br label %56

56:                                               ; preds = %55, %30, %26
  call void @llvm.lifetime.end.p0(i64 8, ptr %3) #11
  ret void
}