; Function Attrs: nounwind uwtable
define void @pmix_pgpu_base_child_finalized(ptr noundef %0) local_unnamed_addr #0 {
  %2 = load i32, ptr getelementptr inbounds nuw (i8, ptr @pmix_pgpu_base_framework, i64 76), align 4, !tbaa !3
  %or.cond = icmp ult i32 %2, 64
  br i1 %or.cond, label %3, label %9

3:                                                ; preds = %1
  %4 = zext nneg i32 %2 to i64
  %5 = getelementptr inbounds nuw [0 x %struct.pmix_output_desc_t], ptr @pmix_output_info, i64 0, i64 %4, i32 2
  %6 = load i32, ptr %5, align 4, !tbaa !18
  %7 = icmp sgt i32 %6, 1
  br i1 %7, label %8, label %9

8:                                                ; preds = %3
  tail call void (i32, ptr, ...) @pmix_output(i32 noundef %2, ptr noundef nonnull @.str.3) #11
  br label %9

9:                                                ; preds = %8, %3, %1
  %10 = icmp eq ptr %0, null
  br i1 %10, label %11, label %13

11:                                               ; preds = %9
  %12 = tail call ptr @PMIx_Error_string(i32 noundef -27) #11
  tail call void (i32, ptr, ...) @pmix_output(i32 noundef 0, ptr noundef nonnull @.str.4, ptr noundef %12, ptr noundef nonnull @.str.5, i32 noundef 192) #11
  br label %.loopexit

13:                                               ; preds = %9
  %14 = load volatile i64, ptr getelementptr inbounds nuw (i8, ptr @pmix_pgpu_globals, i64 264), align 8, !tbaa !21
  %15 = icmp eq i64 %14, 0
  %.011 = load ptr, ptr getelementptr inbounds nuw (i8, ptr @pmix_pgpu_globals, i64 240), align 8
  %.not12 = icmp eq ptr %.011, getelementptr inbounds nuw (i8, ptr @pmix_pgpu_globals, i64 120)
  %or.cond14 = select i1 %15, i1 true, i1 %.not12
  br i1 %or.cond14, label %.loopexit, label %.lr.ph

.lr.ph:                                           ; preds = %13, %21
  %.013 = phi ptr [ %.0, %21 ], [ %.011, %13 ]
  %16 = getelementptr inbounds nuw i8, ptr %.013, i64 152
  %17 = load ptr, ptr %16, align 8, !tbaa !66
  %18 = getelementptr inbounds nuw i8, ptr %17, i64 48
  %19 = load ptr, ptr %18, align 8, !tbaa !84
  %.not10 = icmp eq ptr %19, null
  br i1 %.not10, label %21, label %20

20:                                               ; preds = %.lr.ph
  tail call void %19(ptr noundef nonnull %0) #11
  br label %21

21:                                               ; preds = %.lr.ph, %20
  %22 = getelementptr inbounds nuw i8, ptr %.013, i64 120
  %.0 = load ptr, ptr %22, align 8, !tbaa !22
  %.not = icmp eq ptr %.0, getelementptr inbounds nuw (i8, ptr @pmix_pgpu_globals, i64 120)
  br i1 %.not, label %.loopexit, label %.lr.ph, !llvm.loop !85

.loopexit:                                        ; preds = %21, %13, %11
  ret void
}